target datalayout = "e-m:e-p270:32:32-p271:32:32-p272:64:64-i64:64-i128:128-f80:128-n8:16:32:64-S128"
target triple = "x86_64-pc-linux-gnu"

%class.QString = type { %struct.QArrayDataPointer.4 }
%struct.QArrayDataPointer.4 = type { ptr, ptr, i64 }
%class.QTreeWidgetItem.base = type <{ ptr, i32, [4 x i8], %class.QList, ptr, ptr, ptr, %class.QList.0, %class.QFlags }>
%class.QList = type { %struct.QArrayDataPointer }
%struct.QArrayDataPointer = type { ptr, ptr, i64 }
%class.QList.0 = type { %struct.QArrayDataPointer.3 }
%struct.QArrayDataPointer.3 = type { ptr, ptr, i64 }
%class.QFlags = type { i32 }
%class.QVariant = type { %"struct.QVariant::Private" }
%"struct.QVariant::Private" = type { %union.anon, i64 }
%union.anon = type { ptr, [16 x i8] }
%class.QBasicAtomicInteger = type { %"struct.std::atomic" }
%"struct.std::atomic" = type { %"struct.std::__atomic_base" }
%"struct.std::__atomic_base" = type { i32 }
%class.LBMLBTRMSourceTransportEntry = type { %class.QTreeWidgetItem.base, %class.QString, i64, i64, i64, i64, i64, i64, i64, i64, i64, %struct.nstime_t, i8, %struct.nstime_t, %class.QMap.8, %class.QMap.8, %class.QMap.10, %class.QMap.8 }
%struct.nstime_t = type { i64, i32 }
%class.QMap.10 = type { %"class.QtPrivate::QExplicitlySharedDataPointerV2.11" }
%"class.QtPrivate::QExplicitlySharedDataPointerV2.11" = type { ptr }
%class.QMap.8 = type { %"class.QtPrivate::QExplicitlySharedDataPointerV2.9" }
%"class.QtPrivate::QExplicitlySharedDataPointerV2.9" = type { ptr }
%struct.QArrayData = type { %class.QBasicAtomicInteger, %class.QFlags.29, i64 }
%class.QFlags.29 = type { i32 }

; Function Attrs: mustprogress nounwind uwtable
define linkonce_odr noundef i32 @_ZNSt13__atomic_baseIiEppEv(ptr noundef nonnull align 4 dereferenceable(4) %0) #2 comdat align 2 {
  %2 = alloca ptr, align 8
  %3 = alloca i32, align 4
  %4 = alloca i32, align 4
  store ptr %0, ptr %2, align 8
  %5 = load ptr, ptr %2, align 8
  %6 = getelementptr inbounds %"struct.std::__atomic_base", ptr %5, i32 0, i32 0
  store i32 1, ptr %3, align 4
  %7 = load i32, ptr %3, align 4
  %8 = atomicrmw add ptr %6, i32 %7 seq_cst, align 4
  %9 = add i32 %8, %7
  store i32 %9, ptr %4, align 4
  %10 = load i32, ptr %4, align 4
  ret i32 %10
}

; Function Attrs: noreturn nounwind uwtable
define linkonce_odr hidden void @__clang_call_terminate(ptr noundef %0) #5 comdat {
  %2 = call ptr @__cxa_begin_catch(ptr %0) #15
  call void @_ZSt9terminatev() #16
  unreachable
}

; Function Attrs: mustprogress nounwind uwtable
define linkonce_odr noundef zeroext i1 @_ZN10QAtomicOpsIiE3refIiEEbRSt6atomicIT_E(ptr noundef nonnull align 4 dereferenceable(4) %0) #2 comdat align 2 {
  %2 = alloca ptr, align 8
  store ptr %0, ptr %2, align 8
  %3 = load ptr, ptr %2, align 8
  %4 = call noundef i32 @_ZNSt13__atomic_baseIiEppEv(ptr noundef nonnull align 4 dereferenceable(4) %3) #15
  %5 = icmp ne i32 %4, 0
  ret i1 %5
}

; Function Attrs: mustprogress nounwind uwtable
define linkonce_odr noundef zeroext i1 @_ZN19QBasicAtomicIntegerIiE3refEv(ptr noundef nonnull align 4 dereferenceable(4) %0) #2 comdat align 2 personality ptr @__gxx_personality_v0 {
  %2 = alloca ptr, align 8
  store ptr %0, ptr %2, align 8
  %3 = load ptr, ptr %2, align 8
  %4 = getelementptr inbounds %class.QBasicAtomicInteger, ptr %3, i32 0, i32 0
  %5 = invoke noundef zeroext i1 @_ZN10QAtomicOpsIiE3refIiEEbRSt6atomicIT_E(ptr noundef nonnull align 4 dereferenceable(4) %4)
          to label %6 unwind label %7

6:                                                ; preds = %1
  ret i1 %5

7:                                                ; preds = %1
  %8 = landingpad { ptr, i32 }
          catch ptr null
  %9 = extractvalue { ptr, i32 } %8, 0
  call void @__clang_call_terminate(ptr %9) #16
  unreachable
}

; Function Attrs: mustprogress nounwind uwtable
define linkonce_odr noundef zeroext i1 @_ZN10QArrayData3refEv(ptr noundef nonnull align 8 dereferenceable(16) %0) #2 comdat align 2 {
  %2 = alloca ptr, align 8
  store ptr %0, ptr %2, align 8
  %3 = load ptr, ptr %2, align 8
  %4 = getelementptr inbounds %struct.QArrayData, ptr %3, i32 0, i32 0
  %5 = call noundef zeroext i1 @_ZN19QBasicAtomicIntegerIiE3refEv(ptr noundef nonnull align 4 dereferenceable(4) %4) #15
  ret i1 true
}

; Function Attrs: mustprogress nounwind uwtable
define linkonce_odr void @_ZN17QArrayDataPointerIDsE3refEv(ptr noundef nonnull align 8 dereferenceable(24) %0) #2 comdat align 2 {
  %2 = alloca ptr, align 8
  store ptr %0, ptr %2, align 8
  %3 = load ptr, ptr %2, align 8
  %4 = getelementptr inbounds %struct.QArrayDataPointer.4, ptr %3, i32 0, i32 0
  %5 = load ptr, ptr %4, align 8
  %6 = icmp ne ptr %5, null
  br i1 %6, label %7, label %11

7:                                                ; preds = %1
  %8 = getelementptr inbounds %struct.QArrayDataPointer.4, ptr %3, i32 0, i32 0
  %9 = load ptr, ptr %8, align 8
  %10 = call noundef zeroext i1 @_ZN10QArrayData3refEv(ptr noundef nonnull align 8 dereferenceable(16) %9) #15
  br label %11

11:                                               ; preds = %7, %1
  ret void
}

; Function Attrs: mustprogress nounwind uwtable
define linkonce_odr void @_ZN9QtPrivate30QExplicitlySharedDataPointerV2I8QMapDataISt3mapIjP19LBMLBTRMNCFSQNEntrySt4lessIjESaISt4pairIKjS4_EEEEEC2Ev(ptr noundef nonnull align 8 dereferenceable(8) %0) unnamed_addr #2 comdat align 2 {
  %2 = alloca ptr, align 8
  store ptr %0, ptr %2, align 8
  %3 = load ptr, ptr %2, align 8
  %4 = getelementptr inbounds %"class.QtPrivate::QExplicitlySharedDataPointerV2.11", ptr %3, i32 0, i32 0
  store ptr null, ptr %4, align 8
  ret void
}

; Function Attrs: mustprogress nounwind uwtable
define linkonce_odr void @_ZN9QtPrivate30QExplicitlySharedDataPointerV2I8QMapDataISt3mapIjP16LBMLBTRMSQNEntrySt4lessIjESaISt4pairIKjS4_EEEEEC2Ev(ptr noundef nonnull align 8 dereferenceable(8) %0) unnamed_addr #2 comdat align 2 {
  %2 = alloca ptr, align 8
  store ptr %0, ptr %2, align 8
  %3 = load ptr, ptr %2, align 8
  %4 = getelementptr inbounds %"class.QtPrivate::QExplicitlySharedDataPointerV2.9", ptr %3, i32 0, i32 0
  store ptr null, ptr %4, align 8
  ret void
}

; Function Attrs: mustprogress nounwind uwtable
define linkonce_odr void @_ZN17QArrayDataPointerIDsEC2ERKS0_(ptr noundef nonnull align 8 dereferenceable(24) %0, ptr noundef nonnull align 8 dereferenceable(24) %1) unnamed_addr #2 comdat align 2 {
  %3 = alloca ptr, align 8
  %4 = alloca ptr, align 8
  store ptr %0, ptr %3, align 8
  store ptr %1, ptr %4, align 8
  %5 = load ptr, ptr %3, align 8
  %6 = getelementptr inbounds %struct.QArrayDataPointer.4, ptr %5, i32 0, i32 0
  %7 = load ptr, ptr %4, align 8
  %8 = getelementptr inbounds %struct.QArrayDataPointer.4, ptr %7, i32 0, i32 0
  %9 = load ptr, ptr %8, align 8
  store ptr %9, ptr %6, align 8
  %10 = getelementptr inbounds %struct.QArrayDataPointer.4, ptr %5, i32 0, i32 1
  %11 = load ptr, ptr %4, align 8
  %12 = getelementptr inbounds %struct.QArrayDataPointer.4, ptr %11, i32 0, i32 1
  %13 = load ptr, ptr %12, align 8
  store ptr %13, ptr %10, align 8
  %14 = getelementptr inbounds %struct.QArrayDataPointer.4, ptr %5, i32 0, i32 2
  %15 = load ptr, ptr %4, align 8
  %16 = getelementptr inbounds %struct.QArrayDataPointer.4, ptr %15, i32 0, i32 2
  %17 = load i64, ptr %16, align 8
  store i64 %17, ptr %14, align 8
  call void @_ZN17QArrayDataPointerIDsE3refEv(ptr noundef nonnull align 8 dereferenceable(24) %5) #15
  ret void
}

; Function Attrs: mustprogress uwtable
define linkonce_odr void @_ZN15QTreeWidgetItem7setTextEiRK7QString(ptr noundef nonnull align 8 dereferenceable(92) %0, i32 noundef %1, ptr noundef nonnull align 8 dereferenceable(24) %2) #0 comdat align 2 personality ptr @__gxx_personality_v0 {
  %4 = alloca ptr, align 8
  %5 = alloca i32, align 4
  %6 = alloca ptr, align 8
  %7 = alloca %class.QVariant, align 8
  %8 = alloca ptr, align 8
  %9 = alloca i32, align 4
  store ptr %0, ptr %4, align 8
  store i32 %1, ptr %5, align 4
  store ptr %2, ptr %6, align 8
  %10 = load ptr, ptr %4, align 8
  %11 = load i32, ptr %5, align 4
  %12 = load ptr, ptr %6, align 8
  call void @_ZN8QVariantC1ERK7QString(ptr noundef nonnull align 8 dereferenceable(32) %7, ptr noundef nonnull align 8 dereferenceable(24) %12)
  %13 = load ptr, ptr %10, align 8
  %14 = getelementptr inbounds ptr, ptr %13, i64 4
  %15 = load ptr, ptr %14, align 8
  invoke void %15(ptr noundef nonnull align 8 dereferenceable(92) %10, i32 noundef %11, i32 noundef 0, ptr noundef nonnull align 8 dereferenceable(32) %7)
          to label %16 unwind label %17

16:                                               ; preds = %3
  call void @_ZN8QVariantD1Ev(ptr noundef nonnull align 8 dereferenceable(32) %7) #15
  ret void

17:                                               ; preds = %3
  %18 = landingpad { ptr, i32 }
          cleanup
  %19 = extractvalue { ptr, i32 } %18, 0
  store ptr %19, ptr %8, align 8
  %20 = extractvalue { ptr, i32 } %18, 1
  store i32 %20, ptr %9, align 4
  call void @_ZN8QVariantD1Ev(ptr noundef nonnull align 8 dereferenceable(32) %7) #15
  br label %21

21:                                               ; preds = %17
  %22 = load ptr, ptr %8, align 8
  %23 = load i32, ptr %9, align 4
  %24 = insertvalue { ptr, i32 } poison, ptr %22, 0
  %25 = insertvalue { ptr, i32 } %24, i32 %23, 1
  resume { ptr, i32 } %25
}

; Function Attrs: mustprogress nounwind uwtable
define linkonce_odr void @_ZN4QMapIjP19LBMLBTRMNCFSQNEntryEC2Ev(ptr noundef nonnull align 8 dereferenceable(8) %0) unnamed_addr #2 comdat align 2 {
  %2 = alloca ptr, align 8
  store ptr %0, ptr %2, align 8
  %3 = load ptr, ptr %2, align 8
  %4 = getelementptr inbounds %class.QMap.10, ptr %3, i32 0, i32 0
  call void @_ZN9QtPrivate30QExplicitlySharedDataPointerV2I8QMapDataISt3mapIjP19LBMLBTRMNCFSQNEntrySt4lessIjESaISt4pairIKjS4_EEEEEC2Ev(ptr noundef nonnull align 8 dereferenceable(8) %4) #15
  ret void
}

; Function Attrs: mustprogress nounwind uwtable
define linkonce_odr void @_ZN4QMapIjP16LBMLBTRMSQNEntryEC2Ev(ptr noundef nonnull align 8 dereferenceable(8) %0) unnamed_addr #2 comdat align 2 {
  %2 = alloca ptr, align 8
  store ptr %0, ptr %2, align 8
  %3 = load ptr, ptr %2, align 8
  %4 = getelementptr inbounds %class.QMap.8, ptr %3, i32 0, i32 0
  call void @_ZN9QtPrivate30QExplicitlySharedDataPointerV2I8QMapDataISt3mapIjP16LBMLBTRMSQNEntrySt4lessIjESaISt4pairIKjS4_EEEEEC2Ev(ptr noundef nonnull align 8 dereferenceable(8) %4) #15
  ret void
}

; Function Attrs: mustprogress nounwind uwtable
define linkonce_odr void @_ZN7QStringC2ERKS_(ptr noundef nonnull align 8 dereferenceable(24) %0, ptr noundef nonnull align 8 dereferenceable(24) %1) unnamed_addr #2 comdat align 2 {
  %3 = alloca ptr, align 8
  %4 = alloca ptr, align 8
  store ptr %0, ptr %3, align 8
  store ptr %1, ptr %4, align 8
  %5 = load ptr, ptr %3, align 8
  %6 = getelementptr inbounds %class.QString, ptr %5, i32 0, i32 0
  %7 = load ptr, ptr %4, align 8
  %8 = getelementptr inbounds %class.QString, ptr %7, i32 0, i32 0
  call void @_ZN17QArrayDataPointerIDsEC2ERKS0_(ptr noundef nonnull align 8 dereferenceable(24) %6, ptr noundef nonnull align 8 dereferenceable(24) %8) #15
  ret void
}

; Function Attrs: mustprogress uwtable
define void @_ZN28LBMLBTRMSourceTransportEntryC2ERK7QString(ptr noundef nonnull align 8 dereferenceable(264) %0, ptr noundef nonnull align 8 dereferenceable(24) %1) unnamed_addr #0 align 2 personality ptr @__gxx_personality_v0 {
  %3 = alloca ptr, align 8
  %4 = alloca ptr, align 8
  %5 = alloca ptr, align 8
  %6 = alloca i32, align 4
  store ptr %0, ptr %3, align 8
  store ptr %1, ptr %4, align 8
  %7 = load ptr, ptr %3, align 8
  call void @_ZN15QTreeWidgetItemC2Ei(ptr noundef nonnull align 8 dereferenceable(92) %7, i32 noundef 0)
  store ptr getelementptr inbounds ({ [10 x ptr] }, ptr @_ZTV28LBMLBTRMSourceTransportEntry, i32 0, i32 0, i32 2), ptr %7, align 8
  %8 = getelementptr inbounds %class.LBMLBTRMSourceTransportEntry, ptr %7, i32 0, i32 1
  %9 = load ptr, ptr %4, align 8
  call void @_ZN7QStringC2ERKS_(ptr noundef nonnull align 8 dereferenceable(24) %8, ptr noundef nonnull align 8 dereferenceable(24) %9) #15
  %10 = getelementptr inbounds %class.LBMLBTRMSourceTransportEntry, ptr %7, i32 0, i32 2
  store i64 0, ptr %10, align 8
  %11 = getelementptr inbounds %class.LBMLBTRMSourceTransportEntry, ptr %7, i32 0, i32 3
  store i64 0, ptr %11, align 8
  %12 = getelementptr inbounds %class.LBMLBTRMSourceTransportEntry, ptr %7, i32 0, i32 4
  store i64 0, ptr %12, align 8
  %13 = getelementptr inbounds %class.LBMLBTRMSourceTransportEntry, ptr %7, i32 0, i32 5
  store i64 0, ptr %13, align 8
  %14 = getelementptr inbounds %class.LBMLBTRMSourceTransportEntry, ptr %7, i32 0, i32 6
  store i64 0, ptr %14, align 8
  %15 = getelementptr inbounds %class.LBMLBTRMSourceTransportEntry, ptr %7, i32 0, i32 7
  store i64 0, ptr %15, align 8
  %16 = getelementptr inbounds %class.LBMLBTRMSourceTransportEntry, ptr %7, i32 0, i32 8
  store i64 0, ptr %16, align 8
  %17 = getelementptr inbounds %class.LBMLBTRMSourceTransportEntry, ptr %7, i32 0, i32 9
  store i64 0, ptr %17, align 8
  %18 = getelementptr inbounds %class.LBMLBTRMSourceTransportEntry, ptr %7, i32 0, i32 10
  store i64 0, ptr %18, align 8
  %19 = getelementptr inbounds %class.LBMLBTRMSourceTransportEntry, ptr %7, i32 0, i32 12
  store i8 0, ptr %19, align 8
  %20 = getelementptr inbounds %class.LBMLBTRMSourceTransportEntry, ptr %7, i32 0, i32 14
  call void @llvm.memset.p0.i64(ptr align 8 %20, i8 0, i64 8, i1 false)
  call void @_ZN4QMapIjP16LBMLBTRMSQNEntryEC2Ev(ptr noundef nonnull align 8 dereferenceable(8) %20) #15
  %21 = getelementptr inbounds %class.LBMLBTRMSourceTransportEntry, ptr %7, i32 0, i32 15
  call void @llvm.memset.p0.i64(ptr align 8 %21, i8 0, i64 8, i1 false)
  call void @_ZN4QMapIjP16LBMLBTRMSQNEntryEC2Ev(ptr noundef nonnull align 8 dereferenceable(8) %21) #15
  %22 = getelementptr inbounds %class.LBMLBTRMSourceTransportEntry, ptr %7, i32 0, i32 16
  call void @llvm.memset.p0.i64(ptr align 8 %22, i8 0, i64 8, i1 false)
  call void @_ZN4QMapIjP19LBMLBTRMNCFSQNEntryEC2Ev(ptr noundef nonnull align 8 dereferenceable(8) %22) #15
  %23 = getelementptr inbounds %class.LBMLBTRMSourceTransportEntry, ptr %7, i32 0, i32 17
  call void @llvm.memset.p0.i64(ptr align 8 %23, i8 0, i64 8, i1 false)
  call void @_ZN4QMapIjP16LBMLBTRMSQNEntryEC2Ev(ptr noundef nonnull align 8 dereferenceable(8) %23) #15
  %24 = getelementptr inbounds %class.LBMLBTRMSourceTransportEntry, ptr %7, i32 0, i32 11
  %25 = getelementptr inbounds %struct.nstime_t, ptr %24, i32 0, i32 0
  store i64 0, ptr %25, align 8
  %26 = getelementptr inbounds %class.LBMLBTRMSourceTransportEntry, ptr %7, i32 0, i32 11
  %27 = getelementptr inbounds %struct.nstime_t, ptr %26, i32 0, i32 1
  store i32 0, ptr %27, align 8
  %28 = getelementptr inbounds %class.LBMLBTRMSourceTransportEntry, ptr %7, i32 0, i32 13
  %29 = getelementptr inbounds %struct.nstime_t, ptr %28, i32 0, i32 0
  store i64 0, ptr %29, align 8
  %30 = getelementptr inbounds %class.LBMLBTRMSourceTransportEntry, ptr %7, i32 0, i32 13
  %31 = getelementptr inbounds %struct.nstime_t, ptr %30, i32 0, i32 1
  store i32 0, ptr %31, align 8
  %32 = getelementptr inbounds %class.LBMLBTRMSourceTransportEntry, ptr %7, i32 0, i32 1
  invoke void @_ZN15QTreeWidgetItem7setTextEiRK7QString(ptr noundef nonnull align 8 dereferenceable(92) %7, i32 noundef 0, ptr noundef nonnull align 8 dereferenceable(24) %32)
          to label %33 unwind label %34

33:                                               ; preds = %2
  ret void

34:                                               ; preds = %2
  %35 = landingpad { ptr, i32 }
          cleanup
  %36 = extractvalue { ptr, i32 } %35, 0
  store ptr %36, ptr %5, align 8
  %37 = extractvalue { ptr, i32 } %35, 1
  store i32 %37, ptr %6, align 4
  call void @_ZN4QMapIjP16LBMLBTRMSQNEntryED2Ev(ptr noundef nonnull align 8 dereferenceable(8) %23) #15
  call void @_ZN4QMapIjP19LBMLBTRMNCFSQNEntryED2Ev(ptr noundef nonnull align 8 dereferenceable(8) %22) #15
  call void @_ZN4QMapIjP16LBMLBTRMSQNEntryED2Ev(ptr noundef nonnull align 8 dereferenceable(8) %21) #15
  call void @_ZN4QMapIjP16LBMLBTRMSQNEntryED2Ev(ptr noundef nonnull align 8 dereferenceable(8) %20) #15
  call void @_ZN7QStringD2Ev(ptr noundef nonnull align 8 dereferenceable(24) %8) #15
  call void @_ZN15QTreeWidgetItemD2Ev(ptr noundef nonnull align 8 dereferenceable(92) %7) #15
  br label %38

38:                                               ; preds = %34
  %39 = load ptr, ptr %5, align 8
  %40 = load i32, ptr %6, align 4
  %41 = insertvalue { ptr, i32 } poison, ptr %39, 0
  %42 = insertvalue { ptr, i32 } %41, i32 %40, 1
  resume { ptr, i32 } %42
}