; Function Attrs: mustprogress uwtable
define void @_ZN28LBMLBTRMSourceTransportEntryC2ERK7QString(ptr noundef nonnull align 8 dereferenceable(264) %0, ptr nocapture noundef nonnull readonly align 8 dereferenceable(24) %1) unnamed_addr #0 align 2 personality ptr @__gxx_personality_v0 {
  %3 = alloca %class.QVariant, align 8
  tail call void @_ZN15QTreeWidgetItemC2Ei(ptr noundef nonnull align 8 dereferenceable(92) %0, i32 noundef 0)
  store ptr getelementptr inbounds ({ [10 x ptr] }, ptr @_ZTV28LBMLBTRMSourceTransportEntry, i64 0, i32 0, i64 2), ptr %0, align 8
  %4 = getelementptr inbounds i8, ptr %0, i64 96
  %5 = load ptr, ptr %1, align 8
  store ptr %5, ptr %4, align 8
  %6 = getelementptr inbounds i8, ptr %0, i64 104
  %7 = getelementptr inbounds i8, ptr %1, i64 8
  %8 = load ptr, ptr %7, align 8
  store ptr %8, ptr %6, align 8
  %9 = getelementptr inbounds i8, ptr %0, i64 112
  %10 = getelementptr inbounds i8, ptr %1, i64 16
  %11 = load i64, ptr %10, align 8
  store i64 %11, ptr %9, align 8
  %.not.i.i.i = icmp eq ptr %5, null
  br i1 %.not.i.i.i, label %_ZN7QStringC2ERKS_.exit, label %12

12:                                               ; preds = %2
  %13 = atomicrmw add ptr %5, i32 1 seq_cst, align 4
  br label %_ZN7QStringC2ERKS_.exit

_ZN7QStringC2ERKS_.exit:                          ; preds = %2, %12
  %14 = getelementptr inbounds i8, ptr %0, i64 120
  %15 = getelementptr inbounds i8, ptr %0, i64 208
  store i8 0, ptr %15, align 8
  %16 = getelementptr inbounds i8, ptr %0, i64 232
  %17 = getelementptr inbounds i8, ptr %0, i64 216
  store i64 0, ptr %17, align 8
  %18 = getelementptr inbounds i8, ptr %0, i64 224
  store i32 0, ptr %18, align 8
  tail call void @llvm.memset.p0.i64(ptr noundef nonnull align 8 dereferenceable(84) %14, i8 0, i64 84, i1 false)
  tail call void @llvm.memset.p0.i64(ptr noundef nonnull align 8 dereferenceable(32) %16, i8 0, i64 32, i1 false)
  call void @llvm.lifetime.start.p0(i64 32, ptr nonnull %3)
  invoke void @_ZN8QVariantC1ERK7QString(ptr noundef nonnull align 8 dereferenceable(32) %3, ptr noundef nonnull align 8 dereferenceable(24) %4)
          to label %.noexc unwind label %25

.noexc:                                           ; preds = %_ZN7QStringC2ERKS_.exit
  %19 = load ptr, ptr %0, align 8
  %20 = getelementptr inbounds i8, ptr %19, i64 32
  %21 = load ptr, ptr %20, align 8
  invoke void %21(ptr noundef nonnull align 8 dereferenceable(92) %0, i32 noundef 0, i32 noundef 0, ptr noundef nonnull align 8 dereferenceable(32) %3)
          to label %24 unwind label %22

22:                                               ; preds = %.noexc
  %23 = landingpad { ptr, i32 }
          cleanup
  call void @_ZN8QVariantD1Ev(ptr noundef nonnull align 8 dereferenceable(32) %3) #17
  br label %.body

24:                                               ; preds = %.noexc
  call void @_ZN8QVariantD1Ev(ptr noundef nonnull align 8 dereferenceable(32) %3) #17
  call void @llvm.lifetime.end.p0(i64 32, ptr nonnull %3)
  ret void

25:                                               ; preds = %_ZN7QStringC2ERKS_.exit
  %26 = landingpad { ptr, i32 }
          cleanup
  br label %.body

.body:                                            ; preds = %22, %25
  %eh.lpad-body = phi { ptr, i32 } [ %26, %25 ], [ %23, %22 ]
  %27 = getelementptr inbounds i8, ptr %0, i64 256
  %28 = getelementptr inbounds i8, ptr %0, i64 248
  %29 = getelementptr inbounds i8, ptr %0, i64 240
  call void @_ZN4QMapIjP16LBMLBTRMSQNEntryED2Ev(ptr noundef nonnull align 8 dereferenceable(8) %27) #17
  call void @_ZN4QMapIjP19LBMLBTRMNCFSQNEntryED2Ev(ptr noundef nonnull align 8 dereferenceable(8) %28) #17
  call void @_ZN4QMapIjP16LBMLBTRMSQNEntryED2Ev(ptr noundef nonnull align 8 dereferenceable(8) %29) #17
  call void @_ZN4QMapIjP16LBMLBTRMSQNEntryED2Ev(ptr noundef nonnull align 8 dereferenceable(8) %16) #17
  call void @_ZN7QStringD2Ev(ptr noundef nonnull align 8 dereferenceable(24) %4) #17
  call void @_ZN15QTreeWidgetItemD2Ev(ptr noundef nonnull align 8 dereferenceable(92) %0) #17
  resume { ptr, i32 } %eh.lpad-body
}